(lp0
(dp1
S'src'
p2
VSwitchIngress.allow
p3
sS'dst'
p4
S'SwitchIngress.nat'
p5
sS'weight'
p6
I0
sa(dp7
g2
S'hdr.ipv4.protocol == 6'
p8
sg4
S'SwitchIngress.acl'
p9
sg6
I0
sa(dp10
g2
g5
sg4
VSwitchIngress.rewrite
p11
sg6
I0
sa(dp12
g2
g9
sg4
g3
sg6
I0
sa(dp13
g2
g5
sg4
VNoAction
p14
sg6
I1
sa(dp15
g2
g9
sg4
VSwitchIngress.deny
p16
sg6
I2
sa(dp17
g2
S'hdr.ethernet.ether_type == 2048'
p18
sg4
g8
sg6
I0
sa(dp19
g2
g16
sg4
g5
sg6
I0
sa.